Certificate:
    Data:
        Version: 3 (0x2)
        Serial Number: 1 (0x1)
        Signature Algorithm: sha1WithRSAEncryption
        Issuer: C=DE, O=schlac, OU=schlac-test, CN=schlac-test Root CA
        Validity
            Not Before: Sep  9 13:02:38 2022 GMT
            Not After : Dec 31 23:59:59 2023 GMT
        Subject: C=DE, O=schlac, OU=schlac-test, CN=schlac-test Root CA
        Subject Public Key Info:
            Public Key Algorithm: rsaEncryption
                Public-Key: (2048 bit)
                Modulus:
                    00:b7:b1:01:c2:52:d8:14:46:5e:df:9d:6e:c6:18:
                    66:f5:78:72:2f:76:80:1a:e9:be:ed:eb:b3:33:1d:
                    f7:b6:b4:68:d4:f3:9c:ea:8d:05:74:88:6b:26:f5:
                    4e:2a:60:c0:1f:b7:92:38:88:ed:1c:7e:ab:51:0b:
                    03:ee:83:d0:08:d7:8e:a7:2f:6f:39:cb:b1:85:48:
                    c9:d1:11:45:54:c3:5d:aa:5b:ce:be:fc:59:d7:0f:
                    9d:49:03:09:ad:2b:08:f5:9c:c2:d5:59:fb:f3:f8:
                    63:ad:83:32:49:df:28:5d:61:43:43:dc:9a:bd:43:
                    9c:29:68:d0:70:34:17:40:fd:ff:49:c0:5e:92:24:
                    2e:35:2b:98:f9:b9:b4:1e:6d:f7:76:bd:38:97:dc:
                    0f:ab:5a:dc:ba:02:f5:d5:cd:2a:fb:06:e0:d6:38:
                    1e:a3:8a:e9:0c:6c:f2:43:fa:35:99:de:a9:2b:bd:
                    e0:68:2b:ad:73:fd:c2:f8:7a:2b:d9:77:b5:20:fb:
                    e8:b9:cf:ba:1a:c0:d2:c2:55:14:68:53:8e:cf:ed:
                    9b:5b:6d:f2:3b:5c:be:86:13:aa:00:09:bd:c7:5b:
                    d0:11:01:43:be:e8:34:e0:f4:12:34:62:0a:8a:80:
                    af:cc:42:a0:8c:32:2e:14:7c:4f:d9:3b:a3:bd:e8:
                    13:83
                Exponent: 65537 (0x10001)
        X509v3 extensions:
            X509v3 Key Usage: critical
                Certificate Sign, CRL Sign
            X509v3 Basic Constraints: critical
                CA:TRUE
            X509v3 Subject Key Identifier: 
                C4:23:F9:F8:60:C3:41:18:4B:19:4A:FF:8F:4D:A5:11:87:7B:53:9A
            X509v3 Authority Key Identifier: 
                C4:23:F9:F8:60:C3:41:18:4B:19:4A:FF:8F:4D:A5:11:87:7B:53:9A
    Signature Algorithm: sha1WithRSAEncryption
    Signature Value:
        1d:7f:4f:d5:d9:52:db:3a:52:f0:86:d4:26:45:17:7b:88:ef:
        9a:53:a3:b2:a0:71:ca:56:36:46:93:6c:20:1e:a4:f8:76:ac:
        9c:66:eb:74:2f:10:ab:d8:64:46:cb:51:b1:d9:ed:b2:aa:8b:
        ac:bc:49:f3:fc:2e:71:b4:00:8d:ce:8b:c4:f1:0c:3a:af:6b:
        69:05:80:56:74:5d:ec:4d:df:c5:ba:7c:f6:a7:25:09:57:93:
        11:cb:75:fd:6c:75:ed:8d:38:74:f3:c2:d3:1a:98:5a:fd:c3:
        43:eb:d5:44:a3:f6:d2:52:e6:8e:6a:37:f8:b8:69:cf:90:9e:
        e1:08:a9:b4:52:64:fd:e8:f3:44:0d:01:3e:8b:f6:c9:b5:c7:
        55:91:bc:a8:57:2b:4d:eb:4b:b7:f9:13:2c:51:5f:67:5d:38:
        28:56:e2:6c:57:eb:8a:50:15:8c:a3:a3:61:03:a1:77:d3:e8:
        1e:7b:12:c6:ab:a0:99:5c:df:c5:40:9b:bb:fb:4a:f5:be:3d:
        1a:ef:86:5f:1f:e2:a7:44:38:d2:af:f3:b5:73:23:8e:a9:72:
        86:9c:09:78:51:a0:46:d5:82:24:36:ea:6f:f6:68:df:f4:36:
        bc:67:f5:61:65:76:5e:d5:d5:75:e2:d8:0d:f7:46:63:08:84:
        7e:28:74:0d
-----BEGIN CERTIFICATE-----
MIIDgjCCAmqgAwIBAgIBATANBgkqhkiG9w0BAQUFADBSMQswCQYDVQQGEwJERTEP
MA0GA1UECgwGc2NobGFjMRQwEgYDVQQLDAtzY2hsYWMtdGVzdDEcMBoGA1UEAwwT
c2NobGFjLXRlc3QgUm9vdCBDQTAeFw0yMjA5MDkxMzAyMzhaFw0yMzEyMzEyMzU5
NTlaMFIxCzAJBgNVBAYTAkRFMQ8wDQYDVQQKDAZzY2hsYWMxFDASBgNVBAsMC3Nj
aGxhYy10ZXN0MRwwGgYDVQQDDBNzY2hsYWMtdGVzdCBSb290IENBMIIBIjANBgkq
hkiG9w0BAQEFAAOCAQ8AMIIBCgKCAQEAt7EBwlLYFEZe351uxhhm9XhyL3aAGum+
7euzMx33trRo1POc6o0FdIhrJvVOKmDAH7eSOIjtHH6rUQsD7oPQCNeOpy9vOcux
hUjJ0RFFVMNdqlvOvvxZ1w+dSQMJrSsI9ZzC1Vn78/hjrYMySd8oXWFDQ9yavUOc
KWjQcDQXQP3/ScBekiQuNSuY+bm0Hm33dr04l9wPq1rcugL11c0q+wbg1jgeo4rp
DGzyQ/o1md6pK73gaCutc/3C+Hor2Xe1IPvouc+6GsDSwlUUaFOOz+2bW23yO1y+
hhOqAAm9x1vQEQFDvug04PQSNGIKioCvzEKgjDIuFHxP2TujvegTgwIDAQABo2Mw
YTAOBgNVHQ8BAf8EBAMCAQYwDwYDVR0TAQH/BAUwAwEB/zAdBgNVHQ4EFgQUxCP5
+GDDQRhLGUr/j02lEYd7U5owHwYDVR0jBBgwFoAUxCP5+GDDQRhLGUr/j02lEYd7
U5owDQYJKoZIhvcNAQEFBQADggEBAB1/T9XZUts6UvCG1CZFF3uI75pTo7KgccpW
NkaTbCAepPh2rJxm63QvEKvYZEbLUbHZ7bKqi6y8SfP8LnG0AI3Oi8TxDDqva2kF
gFZ0XexN38W6fPanJQlXkxHLdf1sde2NOHTzwtMamFr9w0Pr1USj9tJS5o5qN/i4
ac+QnuEIqbRSZP3o80QNAT6L9sm1x1WRvKhXK03rS7f5EyxRX2ddOChW4mxX64pQ
FYyjo2EDoXfT6B57EsaroJlc38VAm7v7SvW+PRrvhl8f4qdEONKv87VzI46pcoac
CXhRoEbVgiQ26m/2aN/0Nrxn9WFldl7V1XXi2A33RmMIhH4odA0=
-----END CERTIFICATE-----
