Certificate:
    Data:
        Version: 3 (0x2)
        Serial Number: 1 (0x1)
        Signature Algorithm: sha1WithRSAEncryption
        Issuer: C=DE, O=schlac, OU=schlac-test, CN=schlac-test TLS CA
        Validity
            Not Before: Sep  9 12:17:49 2022 GMT
            Not After : Sep  8 12:17:49 2024 GMT
        Subject: C=DE, O=schlac, OU=schlac-test, CN=schlac-test Server
        Subject Public Key Info:
            Public Key Algorithm: rsaEncryption
                Public-Key: (2048 bit)
                Modulus:
                    00:de:a9:6e:f1:77:c5:10:93:85:3b:90:51:a8:58:
                    af:35:89:cc:b7:b9:89:d9:73:2b:6f:1f:55:15:ec:
                    c2:f6:3c:54:54:3a:e2:2c:4c:8a:96:77:14:88:8e:
                    3d:b5:c6:93:3d:ef:25:14:9e:35:09:cd:66:65:6f:
                    55:b9:11:c2:55:5e:54:4e:f1:24:0c:e4:c8:ad:14:
                    65:41:c2:13:1f:9c:fe:c2:ea:b8:a3:84:88:bd:91:
                    ad:71:6f:24:b5:d5:53:c1:cc:f0:6c:2b:69:4d:b9:
                    93:02:46:3a:f3:c5:15:09:68:4a:13:83:09:81:75:
                    bc:c9:11:29:fa:19:c2:35:fd:33:23:f6:4f:c8:03:
                    75:6c:9c:9e:e3:8f:ac:e9:ab:d4:87:f4:97:c6:c8:
                    3c:57:8e:63:58:f8:0c:98:1d:f2:73:f0:97:d8:39:
                    15:c9:59:0e:ba:1c:7c:12:d9:56:db:1d:fa:56:08:
                    46:3e:a9:a0:d8:a5:20:e1:51:33:9e:7b:44:db:64:
                    c1:0b:c9:4f:86:a9:cc:33:17:47:3a:3b:51:86:e1:
                    0f:99:54:d4:2e:cf:55:cc:ab:30:ea:04:65:a0:5a:
                    6c:d1:86:6d:00:b8:3d:42:e1:ed:98:15:61:c1:c2:
                    92:1a:ba:7b:01:c1:9d:a4:75:b3:84:d8:af:9c:c5:
                    36:81
                Exponent: 65537 (0x10001)
        X509v3 extensions:
            X509v3 Key Usage: critical
                Digital Signature, Key Encipherment
            X509v3 Basic Constraints: 
                CA:FALSE
            X509v3 Extended Key Usage: 
                TLS Web Server Authentication, TLS Web Client Authentication
            X509v3 Subject Key Identifier: 
                29:D6:6D:E3:C2:ED:E3:FA:BA:F7:39:13:2F:66:39:DC:C9:E4:3F:50
            X509v3 Authority Key Identifier: 
                AC:B2:FB:6D:04:3C:49:F0:2C:1D:FA:71:09:0C:50:39:DF:A0:E3:D8
            Authority Information Access: 
                CA Issuers - URI:http://raw.githubusercontent.com/schlac/tls-ca.cer
            X509v3 CRL Distribution Points: 
                Full Name:
                  URI:http://raw.githubusercontent.com/schlac/tls-ca.crl
            X509v3 Subject Alternative Name: 
                DNS:schlac.test
    Signature Algorithm: sha1WithRSAEncryption
    Signature Value:
        82:48:0e:fb:d8:28:86:87:f5:ff:f9:db:32:69:7c:63:75:cb:
        e6:6f:07:27:2c:3f:e5:eb:9e:c3:72:ca:62:7e:06:1d:d6:a6:
        f5:a8:ee:c0:cf:e3:49:c9:35:b0:2e:3b:21:33:6d:f5:4a:e8:
        f8:2a:9a:40:64:31:0f:cd:6c:24:c3:79:5c:ff:66:66:92:8c:
        cd:0d:a7:2b:29:36:16:8d:ff:1b:d1:d0:c6:9a:c3:63:ae:7e:
        c9:5f:31:7e:7f:69:95:26:e5:b0:66:3e:6d:67:b5:72:f6:4d:
        5b:01:cf:93:dc:cf:a3:f3:2d:dc:bd:fe:09:6b:36:9d:a9:17:
        04:5f:a4:24:45:49:cb:92:73:49:37:ab:f4:93:17:d6:cb:7a:
        a3:93:ce:8c:9a:2a:27:8f:38:6a:dc:83:5b:56:f5:23:50:8b:
        b1:54:16:e6:33:a4:aa:de:59:be:54:c3:38:a3:f9:c5:c5:be:
        60:9a:8e:7b:59:0d:7d:78:b1:b6:ec:1d:4b:06:20:2f:12:c2:
        ef:fe:74:c2:e6:be:98:9e:6e:31:56:86:b3:40:b5:e1:4c:61:
        31:11:96:0e:c2:f5:97:b2:ec:83:a4:b1:f5:23:b0:dd:c1:f6:
        20:6b:42:13:bc:4f:f5:50:28:33:65:f5:e8:98:74:99:3e:d3:
        65:78:69:63
-----BEGIN CERTIFICATE-----
MIIESjCCAzKgAwIBAgIBATANBgkqhkiG9w0BAQUFADBRMQswCQYDVQQGEwJERTEP
MA0GA1UECgwGc2NobGFjMRQwEgYDVQQLDAtzY2hsYWMtdGVzdDEbMBkGA1UEAwwS
c2NobGFjLXRlc3QgVExTIENBMB4XDTIyMDkwOTEyMTc0OVoXDTI0MDkwODEyMTc0
OVowUTELMAkGA1UEBhMCREUxDzANBgNVBAoMBnNjaGxhYzEUMBIGA1UECwwLc2No
bGFjLXRlc3QxGzAZBgNVBAMMEnNjaGxhYy10ZXN0IFNlcnZlcjCCASIwDQYJKoZI
hvcNAQEBBQADggEPADCCAQoCggEBAN6pbvF3xRCThTuQUahYrzWJzLe5idlzK28f
VRXswvY8VFQ64ixMipZ3FIiOPbXGkz3vJRSeNQnNZmVvVbkRwlVeVE7xJAzkyK0U
ZUHCEx+c/sLquKOEiL2RrXFvJLXVU8HM8GwraU25kwJGOvPFFQloShODCYF1vMkR
KfoZwjX9MyP2T8gDdWycnuOPrOmr1If0l8bIPFeOY1j4DJgd8nPwl9g5FclZDroc
fBLZVtsd+lYIRj6poNilIOFRM557RNtkwQvJT4apzDMXRzo7UYbhD5lU1C7PVcyr
MOoEZaBabNGGbQC4PULh7ZgVYcHCkhq6ewHBnaR1s4TYr5zFNoECAwEAAaOCASsw
ggEnMA4GA1UdDwEB/wQEAwIFoDAJBgNVHRMEAjAAMB0GA1UdJQQWMBQGCCsGAQUF
BwMBBggrBgEFBQcDAjAdBgNVHQ4EFgQUKdZt48Lt4/q69zkTL2Y53MnkP1AwHwYD
VR0jBBgwFoAUrLL7bQQ8SfAsHfpxCQxQOd+g49gwTgYIKwYBBQUHAQEEQjBAMD4G
CCsGAQUFBzAChjJodHRwOi8vcmF3LmdpdGh1YnVzZXJjb250ZW50LmNvbS9zY2hs
YWMvdGxzLWNhLmNlcjBDBgNVHR8EPDA6MDigNqA0hjJodHRwOi8vcmF3LmdpdGh1
YnVzZXJjb250ZW50LmNvbS9zY2hsYWMvdGxzLWNhLmNybDAWBgNVHREEDzANggtz
Y2hsYWMudGVzdDANBgkqhkiG9w0BAQUFAAOCAQEAgkgO+9gohof1//nbMml8Y3XL
5m8HJyw/5euew3LKYn4GHdam9ajuwM/jSck1sC47ITNt9Uro+CqaQGQxD81sJMN5
XP9mZpKMzQ2nKyk2Fo3/G9HQxprDY65+yV8xfn9plSblsGY+bWe1cvZNWwHPk9zP
o/Mt3L3+CWs2nakXBF+kJEVJy5JzSTer9JMX1st6o5POjJoqJ484atyDW1b1I1CL
sVQW5jOkqt5ZvlTDOKP5xcW+YJqOe1kNfXixtuwdSwYgLxLC7/50wua+mJ5uMVaG
s0C14UxhMRGWDsL1l7Lsg6Sx9SOw3cH2IGtCE7xP9VAoM2X16Jh0mT7TZXhpYw==
-----END CERTIFICATE-----
