Certificate:
    Data:
        Version: 3 (0x2)
        Serial Number: 1 (0x1)
        Signature Algorithm: sha1WithRSAEncryption
        Issuer: C=DE, O=schlac, OU=schlac-test, CN=schlac-test TLS CA
        Validity
            Not Before: Sep  9 13:03:12 2022 GMT
            Not After : Sep  8 13:03:12 2024 GMT
        Subject: C=DE, O=schlac, OU=achlac-test, CN=schlac-test Server
        Subject Public Key Info:
            Public Key Algorithm: rsaEncryption
                Public-Key: (2048 bit)
                Modulus:
                    00:cb:fb:7e:11:c8:76:0b:96:8a:96:f3:14:fc:cb:
                    65:ca:7c:bf:2b:96:f6:78:e1:7d:3e:32:b7:47:94:
                    ac:f6:2f:b1:00:72:35:2a:45:76:28:d3:7d:04:51:
                    a7:4b:0a:e2:d5:7d:d9:18:b9:59:3d:0c:d2:29:49:
                    9f:cd:07:ea:b6:c5:05:5b:eb:11:e5:1b:56:7c:59:
                    55:48:5a:28:3d:b9:54:72:bf:5d:08:12:ac:64:91:
                    78:4e:54:3e:a5:e1:ff:24:c5:76:80:cb:4f:93:89:
                    53:d1:bb:b5:84:cf:b6:76:33:03:01:ef:07:1a:a0:
                    9c:26:e5:ee:1c:80:b1:f7:6d:86:ed:a5:14:72:48:
                    66:92:f3:32:d1:d0:2f:94:d2:39:87:fb:1d:93:59:
                    cb:85:da:50:40:e7:47:80:d5:2f:09:13:db:a1:1e:
                    f1:93:36:4d:84:14:9c:0f:8a:6f:38:b9:7f:f7:1b:
                    2d:7a:0e:4a:0c:d3:01:0b:94:0f:cc:b4:16:fb:b6:
                    86:29:e0:50:0d:89:d5:21:de:c5:44:6c:e7:12:7d:
                    14:d8:77:e0:10:29:8e:ed:f5:4e:d7:cc:36:42:62:
                    75:5b:7f:e2:92:9a:0e:c3:4c:ec:dc:57:32:d7:f6:
                    4d:b4:c1:7e:a4:c2:c3:f0:e4:d3:d0:d3:f5:eb:12:
                    aa:53
                Exponent: 65537 (0x10001)
        X509v3 extensions:
            X509v3 Key Usage: critical
                Digital Signature, Key Encipherment
            X509v3 Basic Constraints: 
                CA:FALSE
            X509v3 Extended Key Usage: 
                TLS Web Server Authentication, TLS Web Client Authentication
            X509v3 Subject Key Identifier: 
                01:99:FE:4D:EC:2C:53:D5:88:12:23:11:16:AD:44:71:79:A5:4D:4A
            X509v3 Authority Key Identifier: 
                6B:30:2B:F8:84:4E:99:D3:CA:99:E5:DD:1C:3E:18:A5:72:81:73:C4
            Authority Information Access: 
                CA Issuers - URI:http://raw.githubusercontent.com/schlac/cert-test/main/tls-ca.cer
            X509v3 CRL Distribution Points: 
                Full Name:
                  URI:http://raw.githubusercontent.com/schlac/cert-test/main/tls-ca.crl
            X509v3 Subject Alternative Name: 
                DNS:schlac.test
    Signature Algorithm: sha1WithRSAEncryption
    Signature Value:
        04:94:04:dd:87:f9:8f:5f:29:48:1c:8c:66:67:4b:35:3e:f3:
        6d:d2:dd:96:73:f1:c3:04:30:43:25:5a:39:12:e1:2c:8a:38:
        07:67:c2:ed:4a:ac:89:f6:56:a4:aa:75:4c:63:7b:c0:88:f3:
        a2:5a:b4:24:cf:39:8f:27:5f:ea:8e:4c:ed:06:b6:1d:ae:cb:
        2c:bc:bf:75:fb:ce:31:51:a3:68:df:9c:60:a3:19:1c:e9:09:
        8a:13:6a:1d:cc:af:3d:74:67:2e:b6:e4:43:f3:0f:a3:c8:dd:
        04:e4:43:84:c6:2e:30:62:df:d8:14:4d:69:84:a0:48:e7:27:
        84:d7:20:1e:ad:8c:1e:8d:f6:ee:87:2c:d4:d7:c9:0a:76:a3:
        6c:c9:41:01:67:fd:5d:3c:ae:b8:fb:dc:00:ff:3f:ad:f2:5d:
        0b:32:e6:1c:cc:b8:38:83:19:36:de:47:5d:ab:00:5a:ab:78:
        1f:6c:c5:b8:df:fe:57:00:33:2c:58:33:a6:0d:8e:30:27:22:
        b8:5f:d4:d9:27:85:30:5c:94:a4:ad:79:2a:2c:f5:83:e6:e8:
        7f:b3:d3:96:5a:df:54:08:d2:0b:7e:da:f7:77:bd:4c:f4:ba:
        93:fe:bb:c5:98:05:35:ff:af:3f:2b:ae:c7:fc:45:29:12:17:
        89:d0:d1:43
-----BEGIN CERTIFICATE-----
MIIEaDCCA1CgAwIBAgIBATANBgkqhkiG9w0BAQUFADBRMQswCQYDVQQGEwJERTEP
MA0GA1UECgwGc2NobGFjMRQwEgYDVQQLDAtzY2hsYWMtdGVzdDEbMBkGA1UEAwwS
c2NobGFjLXRlc3QgVExTIENBMB4XDTIyMDkwOTEzMDMxMloXDTI0MDkwODEzMDMx
MlowUTELMAkGA1UEBhMCREUxDzANBgNVBAoMBnNjaGxhYzEUMBIGA1UECwwLYWNo
bGFjLXRlc3QxGzAZBgNVBAMMEnNjaGxhYy10ZXN0IFNlcnZlcjCCASIwDQYJKoZI
hvcNAQEBBQADggEPADCCAQoCggEBAMv7fhHIdguWipbzFPzLZcp8vyuW9njhfT4y
t0eUrPYvsQByNSpFdijTfQRRp0sK4tV92Ri5WT0M0ilJn80H6rbFBVvrEeUbVnxZ
VUhaKD25VHK/XQgSrGSReE5UPqXh/yTFdoDLT5OJU9G7tYTPtnYzAwHvBxqgnCbl
7hyAsfdthu2lFHJIZpLzMtHQL5TSOYf7HZNZy4XaUEDnR4DVLwkT26Ee8ZM2TYQU
nA+Kbzi5f/cbLXoOSgzTAQuUD8y0Fvu2hingUA2J1SHexURs5xJ9FNh34BApju31
TtfMNkJidVt/4pKaDsNM7NxXMtf2TbTBfqTCw/Dk09DT9esSqlMCAwEAAaOCAUkw
ggFFMA4GA1UdDwEB/wQEAwIFoDAJBgNVHRMEAjAAMB0GA1UdJQQWMBQGCCsGAQUF
BwMBBggrBgEFBQcDAjAdBgNVHQ4EFgQUAZn+TewsU9WIEiMRFq1EcXmlTUowHwYD
VR0jBBgwFoAUazAr+IROmdPKmeXdHD4YpXKBc8QwXQYIKwYBBQUHAQEEUTBPME0G
CCsGAQUFBzAChkFodHRwOi8vcmF3LmdpdGh1YnVzZXJjb250ZW50LmNvbS9zY2hs
YWMvY2VydC10ZXN0L21haW4vdGxzLWNhLmNlcjBSBgNVHR8ESzBJMEegRaBDhkFo
dHRwOi8vcmF3LmdpdGh1YnVzZXJjb250ZW50LmNvbS9zY2hsYWMvY2VydC10ZXN0
L21haW4vdGxzLWNhLmNybDAWBgNVHREEDzANggtzY2hsYWMudGVzdDANBgkqhkiG
9w0BAQUFAAOCAQEABJQE3Yf5j18pSByMZmdLNT7zbdLdlnPxwwQwQyVaORLhLIo4
B2fC7UqsifZWpKp1TGN7wIjzolq0JM85jydf6o5M7Qa2Ha7LLLy/dfvOMVGjaN+c
YKMZHOkJihNqHcyvPXRnLrbkQ/MPo8jdBORDhMYuMGLf2BRNaYSgSOcnhNcgHq2M
Ho327ocs1NfJCnajbMlBAWf9XTyuuPvcAP8/rfJdCzLmHMy4OIMZNt5HXasAWqt4
H2zFuN/+VwAzLFgzpg2OMCciuF/U2SeFMFyUpK15Kiz1g+bof7PTllrfVAjSC37a
93e9TPS6k/67xZgFNf+vPyuux/xFKRIXidDRQw==
-----END CERTIFICATE-----
