Certificate:
    Data:
        Version: 3 (0x2)
        Serial Number: 2 (0x2)
        Signature Algorithm: sha1WithRSAEncryption
        Issuer: C=DE, O=schlac, OU=schlac-test, CN=schlac-test Root CA
        Validity
            Not Before: Sep  9 13:02:44 2022 GMT
            Not After : Sep  8 13:02:44 2032 GMT
        Subject: C=DE, O=schlac, OU=schlac-test, CN=schlac-test TLS CA
        Subject Public Key Info:
            Public Key Algorithm: rsaEncryption
                Public-Key: (2048 bit)
                Modulus:
                    00:c5:34:e6:14:12:a6:22:9b:d1:3d:63:47:33:3d:
                    80:9a:20:ea:ca:1a:76:35:32:33:4d:bf:89:7d:28:
                    de:96:6e:48:74:72:3e:66:f1:76:10:ea:4c:4c:2d:
                    a8:aa:28:25:58:dd:b2:d7:11:54:43:37:fa:13:27:
                    59:f2:e3:2f:06:0f:5d:13:bf:7a:8b:32:d3:75:94:
                    6c:2b:8c:e5:8c:5c:f7:80:b3:37:d2:53:b5:05:35:
                    80:26:59:80:25:6d:bd:88:09:a3:9c:ca:93:9d:2f:
                    b3:ea:12:31:eb:0c:86:1a:8c:a5:c8:ea:0a:fd:d4:
                    27:93:3a:28:e3:90:82:90:c4:98:d2:ce:b2:5d:d0:
                    6a:38:b4:da:f6:78:b8:f0:94:0d:4a:2f:7d:9c:f4:
                    05:b2:67:e7:f3:24:d5:1e:2d:f2:3b:ee:7e:e2:c2:
                    43:80:bb:cf:72:ef:2f:53:05:ca:81:78:06:3c:eb:
                    d4:c2:ac:61:37:27:1d:11:99:d6:a9:1c:54:2b:79:
                    8c:71:27:a1:19:9d:53:4b:7a:30:4f:c1:af:47:bf:
                    28:38:db:17:af:f0:ba:7e:7c:ef:db:80:9c:9b:9e:
                    3d:4e:38:5b:3f:0f:b4:63:5c:54:d8:0f:ff:0d:41:
                    20:74:14:6b:23:5f:75:82:50:ca:04:a8:ae:23:83:
                    90:01
                Exponent: 65537 (0x10001)
        X509v3 extensions:
            X509v3 Key Usage: critical
                Certificate Sign, CRL Sign
            X509v3 Basic Constraints: critical
                CA:TRUE, pathlen:0
            X509v3 Subject Key Identifier: 
                6B:30:2B:F8:84:4E:99:D3:CA:99:E5:DD:1C:3E:18:A5:72:81:73:C4
            X509v3 Authority Key Identifier: 
                C4:23:F9:F8:60:C3:41:18:4B:19:4A:FF:8F:4D:A5:11:87:7B:53:9A
            Authority Information Access: 
                CA Issuers - URI:http://raw.githubusercontent.com/schlac/cert-test/main/root-ca.cer
            X509v3 CRL Distribution Points: 
                Full Name:
                  URI:http://raw.githubusercontent.com/schlac/cert-test/main/root-ca.crl
    Signature Algorithm: sha1WithRSAEncryption
    Signature Value:
        3d:f5:dc:90:2d:be:d4:04:6c:c4:af:6d:ff:35:38:1b:3f:38:
        c4:96:8f:c0:45:95:a2:5f:b7:84:2e:eb:3b:ae:cc:97:89:b6:
        fb:f5:b5:c6:d2:0f:db:80:6f:53:cf:de:44:e4:5f:9f:fd:7e:
        0b:ab:d1:1a:db:bc:4d:13:61:73:7c:91:8f:bd:7b:42:50:ca:
        37:5e:5c:a3:ad:c2:f4:8f:97:e8:95:19:d2:45:f1:38:e2:ae:
        fe:1a:a2:a8:af:4d:eb:6e:27:c5:67:ed:69:42:d0:b4:cd:78:
        6b:04:d0:cf:9e:ef:fb:9c:cd:c8:6a:51:73:29:8b:70:e8:c5:
        d5:12:d2:4b:34:69:eb:a0:26:4b:49:6f:92:6f:d0:09:5d:a5:
        be:a6:8b:20:ac:6d:48:ac:38:a4:5d:b0:9e:61:af:4b:ce:73:
        b1:c1:9f:bd:d8:74:c2:54:f0:dc:57:4e:7d:81:3c:fc:7b:36:
        72:a3:eb:9b:9d:41:84:4e:3d:aa:04:53:c2:24:e7:a7:72:17:
        3b:9c:f1:40:e4:31:16:06:8e:a7:92:06:dd:0b:cc:f4:b5:73:
        f6:4d:72:1f:fe:98:de:69:c8:7b:8e:24:96:a0:58:5b:5e:34:
        b0:b8:84:05:5a:91:a0:b3:f0:0a:c3:f4:7a:7e:4f:9c:0a:b9:
        fd:ce:01:99
-----BEGIN CERTIFICATE-----
MIIEPTCCAyWgAwIBAgIBAjANBgkqhkiG9w0BAQUFADBSMQswCQYDVQQGEwJERTEP
MA0GA1UECgwGc2NobGFjMRQwEgYDVQQLDAtzY2hsYWMtdGVzdDEcMBoGA1UEAwwT
c2NobGFjLXRlc3QgUm9vdCBDQTAeFw0yMjA5MDkxMzAyNDRaFw0zMjA5MDgxMzAy
NDRaMFExCzAJBgNVBAYTAkRFMQ8wDQYDVQQKDAZzY2hsYWMxFDASBgNVBAsMC3Nj
aGxhYy10ZXN0MRswGQYDVQQDDBJzY2hsYWMtdGVzdCBUTFMgQ0EwggEiMA0GCSqG
SIb3DQEBAQUAA4IBDwAwggEKAoIBAQDFNOYUEqYim9E9Y0czPYCaIOrKGnY1MjNN
v4l9KN6Wbkh0cj5m8XYQ6kxMLaiqKCVY3bLXEVRDN/oTJ1ny4y8GD10Tv3qLMtN1
lGwrjOWMXPeAszfSU7UFNYAmWYAlbb2ICaOcypOdL7PqEjHrDIYajKXI6gr91CeT
OijjkIKQxJjSzrJd0Go4tNr2eLjwlA1KL32c9AWyZ+fzJNUeLfI77n7iwkOAu89y
7y9TBcqBeAY869TCrGE3Jx0RmdapHFQreYxxJ6EZnVNLejBPwa9Hvyg42xev8Lp+
fO/bgJybnj1OOFs/D7RjXFTYD/8NQSB0FGsjX3WCUMoEqK4jg5ABAgMBAAGjggEd
MIIBGTAOBgNVHQ8BAf8EBAMCAQYwEgYDVR0TAQH/BAgwBgEB/wIBADAdBgNVHQ4E
FgQUazAr+IROmdPKmeXdHD4YpXKBc8QwHwYDVR0jBBgwFoAUxCP5+GDDQRhLGUr/
j02lEYd7U5owXgYIKwYBBQUHAQEEUjBQME4GCCsGAQUFBzAChkJodHRwOi8vcmF3
LmdpdGh1YnVzZXJjb250ZW50LmNvbS9zY2hsYWMvY2VydC10ZXN0L21haW4vcm9v
dC1jYS5jZXIwUwYDVR0fBEwwSjBIoEagRIZCaHR0cDovL3Jhdy5naXRodWJ1c2Vy
Y29udGVudC5jb20vc2NobGFjL2NlcnQtdGVzdC9tYWluL3Jvb3QtY2EuY3JsMA0G
CSqGSIb3DQEBBQUAA4IBAQA99dyQLb7UBGzEr23/NTgbPzjElo/ARZWiX7eELus7
rsyXibb79bXG0g/bgG9Tz95E5F+f/X4Lq9Ea27xNE2FzfJGPvXtCUMo3XlyjrcL0
j5folRnSRfE44q7+GqKor03rbifFZ+1pQtC0zXhrBNDPnu/7nM3IalFzKYtw6MXV
EtJLNGnroCZLSW+Sb9AJXaW+posgrG1IrDikXbCeYa9LznOxwZ+92HTCVPDcV059
gTz8ezZyo+ubnUGETj2qBFPCJOenchc7nPFA5DEWBo6nkgbdC8z0tXP2TXIf/pje
ach7jiSWoFhbXjSwuIQFWpGgs/AKw/R6fk+cCrn9zgGZ
-----END CERTIFICATE-----
