Certificate:
    Data:
        Version: 3 (0x2)
        Serial Number: 2 (0x2)
        Signature Algorithm: sha1WithRSAEncryption
        Issuer: C=DE, O=schlac, OU=schlac-test, CN=schlac-test Root CA
        Validity
            Not Before: Sep  9 11:44:00 2022 GMT
            Not After : Sep  8 11:44:00 2032 GMT
        Subject: C=DE, O=schlac, OU=schlac-test, CN=schlac-test TLS CA
        Subject Public Key Info:
            Public Key Algorithm: rsaEncryption
                Public-Key: (2048 bit)
                Modulus:
                    00:e1:e4:d8:0e:02:b1:84:80:84:75:bf:db:cf:48:
                    5f:2d:3b:47:81:16:91:7b:64:49:00:b6:44:fd:fc:
                    9d:9e:7c:51:9b:98:7b:8b:01:21:49:c2:de:c4:d2:
                    ff:9e:28:de:a7:20:19:7e:72:b3:dc:6e:94:f5:93:
                    7b:74:67:eb:a5:b9:f4:3d:28:4f:fa:4c:41:fd:82:
                    4d:8f:65:41:61:4d:42:02:0d:86:ef:e5:93:dc:7f:
                    07:ad:75:9a:3c:9d:b6:ac:f4:2f:a5:ea:9f:89:5f:
                    9e:33:6d:2d:38:f5:71:24:88:64:b3:36:db:a3:7c:
                    4c:3e:69:71:95:dc:50:b5:ff:aa:32:37:9b:a9:42:
                    69:48:4f:0b:fd:29:e8:11:76:bd:37:c9:f3:de:7a:
                    7f:5a:e1:74:4e:5f:0e:7a:3c:95:70:5a:45:fb:52:
                    13:76:01:66:8a:6f:7b:11:b6:c2:ae:b5:fb:03:36:
                    93:65:8f:b6:cd:45:f1:64:7a:d6:b4:68:71:87:66:
                    55:17:56:ef:f9:a3:15:93:e0:6b:5e:2f:8a:05:bd:
                    73:71:16:b0:d1:38:fa:7a:d6:07:56:18:6c:10:b5:
                    dd:a3:6c:87:ed:0f:d7:c4:9c:c6:2a:a8:0b:c3:a7:
                    00:e5:0b:d7:d3:93:cc:91:27:e8:2e:e7:0b:7f:4e:
                    1f:05
                Exponent: 65537 (0x10001)
        X509v3 extensions:
            X509v3 Key Usage: critical
                Certificate Sign, CRL Sign
            X509v3 Basic Constraints: critical
                CA:TRUE, pathlen:0
            X509v3 Subject Key Identifier: 
                AC:B2:FB:6D:04:3C:49:F0:2C:1D:FA:71:09:0C:50:39:DF:A0:E3:D8
            X509v3 Authority Key Identifier: 
                91:F4:16:DB:93:BC:B2:8D:71:F4:6B:AC:24:10:83:5A:1B:41:8A:D8
            Authority Information Access: 
                CA Issuers - URI:http://raw.githubusercontent.com/schlac/cert-test/root-ca.cer
            X509v3 CRL Distribution Points: 
                Full Name:
                  URI:http://raw.githubusercontent.com/schlac/cert-test/root-ca.crl
    Signature Algorithm: sha1WithRSAEncryption
    Signature Value:
        51:e8:2c:5d:f0:35:25:aa:09:34:45:b5:e7:78:1f:c0:de:cb:
        1b:73:d9:2a:51:90:00:0f:cd:2e:fc:87:77:9c:01:d0:78:63:
        a6:21:e7:f5:81:f0:36:b7:fe:a7:0b:d8:c8:3f:f0:70:ff:97:
        b3:42:4a:c5:43:1a:45:03:67:ad:3a:84:69:d0:22:22:f6:17:
        53:e7:0e:1f:bb:27:ce:ee:11:7c:de:9a:6e:cd:7c:fe:97:33:
        d4:05:70:d7:7c:f7:99:ff:d7:d5:15:60:3e:77:87:37:c3:bc:
        74:66:f8:fa:f0:6f:bc:51:7e:b6:fb:e0:60:b2:88:7a:0c:68:
        25:27:f0:81:50:30:bf:a2:d7:0d:9b:a6:6a:fb:1c:9e:4b:d6:
        96:45:37:42:c2:ab:4e:d5:80:50:fb:13:02:ac:4f:5a:a5:81:
        73:c8:19:02:fc:50:eb:28:f1:d4:a9:59:cc:5d:72:b4:2e:87:
        b7:98:3b:a1:70:0c:41:92:6f:80:9a:e9:83:df:40:e0:05:13:
        65:e3:3a:92:54:73:bf:e1:3d:04:e7:19:49:76:bf:ea:87:14:
        25:89:2a:27:dd:0a:3a:7e:d0:1e:0b:32:1f:2c:ca:ff:06:b6:
        93:30:79:d9:38:4b:59:73:4b:5a:ad:67:b6:52:02:b6:81:d4:
        e8:fb:c8:48
-----BEGIN CERTIFICATE-----
MIIEMzCCAxugAwIBAgIBAjANBgkqhkiG9w0BAQUFADBSMQswCQYDVQQGEwJERTEP
MA0GA1UECgwGc2NobGFjMRQwEgYDVQQLDAtzY2hsYWMtdGVzdDEcMBoGA1UEAwwT
c2NobGFjLXRlc3QgUm9vdCBDQTAeFw0yMjA5MDkxMTQ0MDBaFw0zMjA5MDgxMTQ0
MDBaMFExCzAJBgNVBAYTAkRFMQ8wDQYDVQQKDAZzY2hsYWMxFDASBgNVBAsMC3Nj
aGxhYy10ZXN0MRswGQYDVQQDDBJzY2hsYWMtdGVzdCBUTFMgQ0EwggEiMA0GCSqG
SIb3DQEBAQUAA4IBDwAwggEKAoIBAQDh5NgOArGEgIR1v9vPSF8tO0eBFpF7ZEkA
tkT9/J2efFGbmHuLASFJwt7E0v+eKN6nIBl+crPcbpT1k3t0Z+ulufQ9KE/6TEH9
gk2PZUFhTUICDYbv5ZPcfwetdZo8nbas9C+l6p+JX54zbS049XEkiGSzNtujfEw+
aXGV3FC1/6oyN5upQmlITwv9KegRdr03yfPeen9a4XROXw56PJVwWkX7UhN2AWaK
b3sRtsKutfsDNpNlj7bNRfFketa0aHGHZlUXVu/5oxWT4GteL4oFvXNxFrDROPp6
1gdWGGwQtd2jbIftD9fEnMYqqAvDpwDlC9fTk8yRJ+gu5wt/Th8FAgMBAAGjggET
MIIBDzAOBgNVHQ8BAf8EBAMCAQYwEgYDVR0TAQH/BAgwBgEB/wIBADAdBgNVHQ4E
FgQUrLL7bQQ8SfAsHfpxCQxQOd+g49gwHwYDVR0jBBgwFoAUkfQW25O8so1x9Gus
JBCDWhtBitgwWQYIKwYBBQUHAQEETTBLMEkGCCsGAQUFBzAChj1odHRwOi8vcmF3
LmdpdGh1YnVzZXJjb250ZW50LmNvbS9zY2hsYWMvY2VydC10ZXN0L3Jvb3QtY2Eu
Y2VyME4GA1UdHwRHMEUwQ6BBoD+GPWh0dHA6Ly9yYXcuZ2l0aHVidXNlcmNvbnRl
bnQuY29tL3NjaGxhYy9jZXJ0LXRlc3Qvcm9vdC1jYS5jcmwwDQYJKoZIhvcNAQEF
BQADggEBAFHoLF3wNSWqCTRFted4H8Deyxtz2SpRkAAPzS78h3ecAdB4Y6Yh5/WB
8Da3/qcL2Mg/8HD/l7NCSsVDGkUDZ606hGnQIiL2F1PnDh+7J87uEXzemm7NfP6X
M9QFcNd895n/19UVYD53hzfDvHRm+Prwb7xRfrb74GCyiHoMaCUn8IFQML+i1w2b
pmr7HJ5L1pZFN0LCq07VgFD7EwKsT1qlgXPIGQL8UOso8dSpWcxdcrQuh7eYO6Fw
DEGSb4Ca6YPfQOAFE2XjOpJUc7/hPQTnGUl2v+qHFCWJKifdCjp+0B4LMh8syv8G
tpMwedk4S1lzS1qtZ7ZSAraB1Oj7yEg=
-----END CERTIFICATE-----
