Certificate:
    Data:
        Version: 3 (0x2)
        Serial Number: 1 (0x1)
        Signature Algorithm: sha1WithRSAEncryption
        Issuer: C=DE, O=schlac, OU=schlac-test, CN=schlac-test Root CA
        Validity
            Not Before: Sep 12 09:43:41 2022 GMT
            Not After : Dec 31 23:59:59 2023 GMT
        Subject: C=DE, O=schlac, OU=schlac-test, CN=schlac-test Root CA
        Subject Public Key Info:
            Public Key Algorithm: rsaEncryption
                Public-Key: (2048 bit)
                Modulus:
                    00:81:ad:d1:98:89:48:60:56:85:90:fd:b7:01:0a:
                    17:21:ce:09:1a:ee:96:8e:8a:86:07:13:33:a3:f4:
                    1d:f8:b5:0d:83:6a:d2:8a:e1:4e:42:c9:13:f1:fe:
                    a6:2d:01:4e:7c:f2:27:92:dd:d0:d6:35:62:aa:21:
                    7e:96:96:03:6f:82:36:a8:ae:e2:d8:53:b3:1d:8c:
                    1d:1a:12:4c:66:b3:8d:10:ed:ca:c5:83:12:9a:99:
                    28:56:68:47:f8:99:a9:10:88:ec:97:a0:ac:4a:d7:
                    08:d7:6f:ad:b2:50:36:80:b7:24:8f:65:88:72:a1:
                    7b:09:b7:b0:f6:6e:36:f7:24:ef:4d:9d:e3:6a:dd:
                    3b:6b:d8:38:bd:a1:32:d2:04:66:fd:67:83:9f:cc:
                    b6:d5:43:c2:de:b8:57:43:ce:7a:f5:70:7c:0e:d1:
                    35:65:91:5b:5c:8d:6b:ea:91:16:4c:de:09:36:fa:
                    ea:b0:c8:4c:74:1b:c5:e6:30:d7:3a:5a:44:9c:ab:
                    c9:d8:27:03:21:02:61:a0:70:56:11:ef:63:56:14:
                    d6:79:0a:c1:78:e0:97:d3:d9:4d:85:51:ac:f2:f2:
                    3a:dc:42:07:04:a8:0b:1a:0e:2c:9a:20:20:0d:9e:
                    6a:f4:b2:b8:9f:93:5d:49:c6:c3:15:8b:98:1b:c4:
                    74:99
                Exponent: 65537 (0x10001)
        X509v3 extensions:
            X509v3 Key Usage: critical
                Certificate Sign, CRL Sign
            X509v3 Basic Constraints: critical
                CA:TRUE
            X509v3 Subject Key Identifier: 
                4D:64:A1:B5:BC:8F:96:99:7A:09:B6:27:87:87:E2:7E:CB:C5:17:85
            X509v3 Authority Key Identifier: 
                4D:64:A1:B5:BC:8F:96:99:7A:09:B6:27:87:87:E2:7E:CB:C5:17:85
    Signature Algorithm: sha1WithRSAEncryption
    Signature Value:
        25:43:ad:9c:1b:b7:45:aa:a4:3a:14:1e:56:54:45:91:e3:2f:
        d9:c3:80:79:ab:c5:04:f8:43:bb:7f:3f:c7:d6:bc:2c:37:e1:
        6e:05:1e:48:6b:89:c8:75:80:a2:9a:78:02:e8:53:50:bb:2a:
        28:b0:4f:5a:bd:86:a4:c2:d7:ac:ee:04:1f:f1:cc:8d:95:72:
        48:a6:7e:14:c1:5f:0b:24:a7:5a:65:e7:61:08:0c:61:0a:da:
        af:3b:f0:56:88:41:2f:6c:e3:b6:25:2a:80:c2:fd:5b:d6:1b:
        3d:45:ec:3b:9a:74:83:09:7b:c3:d5:bd:68:ae:7f:ba:f6:55:
        e7:09:c3:36:03:0d:be:3c:a4:fc:00:0d:cb:f3:88:c5:69:e0:
        2d:ff:f1:23:4b:05:12:29:85:5f:da:ab:50:2f:f7:1f:09:05:
        81:68:28:c9:d6:d1:00:7e:d1:12:d1:41:40:c1:6c:c8:cc:44:
        e8:f8:92:9d:2e:50:d9:24:ad:10:f0:3e:f1:04:63:40:d9:91:
        16:2a:41:38:8c:d0:38:a4:39:d5:34:fc:ab:09:7e:2e:8c:d0:
        aa:9d:4e:37:b9:02:f4:36:97:38:62:be:bd:e1:73:28:02:fe:
        a8:35:89:6b:f4:b0:0e:c4:34:9b:14:c1:d9:f2:f4:33:68:68:
        57:b1:33:00
-----BEGIN CERTIFICATE-----
MIIDgjCCAmqgAwIBAgIBATANBgkqhkiG9w0BAQUFADBSMQswCQYDVQQGEwJERTEP
MA0GA1UECgwGc2NobGFjMRQwEgYDVQQLDAtzY2hsYWMtdGVzdDEcMBoGA1UEAwwT
c2NobGFjLXRlc3QgUm9vdCBDQTAeFw0yMjA5MTIwOTQzNDFaFw0yMzEyMzEyMzU5
NTlaMFIxCzAJBgNVBAYTAkRFMQ8wDQYDVQQKDAZzY2hsYWMxFDASBgNVBAsMC3Nj
aGxhYy10ZXN0MRwwGgYDVQQDDBNzY2hsYWMtdGVzdCBSb290IENBMIIBIjANBgkq
hkiG9w0BAQEFAAOCAQ8AMIIBCgKCAQEAga3RmIlIYFaFkP23AQoXIc4JGu6WjoqG
BxMzo/Qd+LUNg2rSiuFOQskT8f6mLQFOfPInkt3Q1jViqiF+lpYDb4I2qK7i2FOz
HYwdGhJMZrONEO3KxYMSmpkoVmhH+JmpEIjsl6CsStcI12+tslA2gLckj2WIcqF7
Cbew9m429yTvTZ3jat07a9g4vaEy0gRm/WeDn8y21UPC3rhXQ8569XB8DtE1ZZFb
XI1r6pEWTN4JNvrqsMhMdBvF5jDXOlpEnKvJ2CcDIQJhoHBWEe9jVhTWeQrBeOCX
09lNhVGs8vI63EIHBKgLGg4smiAgDZ5q9LK4n5NdScbDFYuYG8R0mQIDAQABo2Mw
YTAOBgNVHQ8BAf8EBAMCAQYwDwYDVR0TAQH/BAUwAwEB/zAdBgNVHQ4EFgQUTWSh
tbyPlpl6CbYnh4fifsvFF4UwHwYDVR0jBBgwFoAUTWShtbyPlpl6CbYnh4fifsvF
F4UwDQYJKoZIhvcNAQEFBQADggEBACVDrZwbt0WqpDoUHlZURZHjL9nDgHmrxQT4
Q7t/P8fWvCw34W4FHkhrich1gKKaeALoU1C7KiiwT1q9hqTC16zuBB/xzI2Vckim
fhTBXwskp1pl52EIDGEK2q878FaIQS9s47YlKoDC/VvWGz1F7DuadIMJe8PVvWiu
f7r2VecJwzYDDb48pPwADcvziMVp4C3/8SNLBRIphV/aq1Av9x8JBYFoKMnW0QB+
0RLRQUDBbMjMROj4kp0uUNkkrRDwPvEEY0DZkRYqQTiM0DikOdU0/KsJfi6M0Kqd
Tje5AvQ2lzhivr3hcygC/qg1iWv0sA7ENJsUwdny9DNoaFexMwA=
-----END CERTIFICATE-----
