Certificate:
    Data:
        Version: 3 (0x2)
        Serial Number: 2 (0x2)
        Signature Algorithm: sha1WithRSAEncryption
        Issuer: C=DE, O=schlac, OU=schlac-test, CN=schlac-test Root CA
        Validity
            Not Before: Sep 12 09:43:44 2022 GMT
            Not After : Sep 11 09:43:44 2032 GMT
        Subject: C=DE, O=schlac, OU=schlac-test, CN=schlac-test TLS CA
        Subject Public Key Info:
            Public Key Algorithm: rsaEncryption
                Public-Key: (2048 bit)
                Modulus:
                    00:da:1d:16:94:ca:de:c0:56:b5:7b:4a:92:c8:6c:
                    0c:87:80:2f:8a:8c:0a:f8:87:83:80:44:b7:52:9c:
                    ce:1b:19:8d:d8:9e:2b:af:95:35:7b:4f:4c:31:ca:
                    05:c0:38:8b:fa:db:6c:6c:ab:88:1f:c8:37:e8:c8:
                    3c:09:9e:d7:26:79:72:e0:08:af:a3:c0:36:1e:02:
                    a5:cc:f7:77:09:99:78:01:50:81:9e:0c:63:3c:d3:
                    4f:31:ba:c8:01:c1:d2:28:42:75:29:4f:3a:3f:50:
                    f0:af:ea:10:fe:88:88:38:a4:0c:79:1f:1d:e2:40:
                    6d:1c:5b:43:9f:f1:4b:cb:14:f7:4a:bb:84:b0:7d:
                    6c:32:76:9f:8a:a7:d1:f9:db:3b:b9:6f:65:9e:39:
                    74:1d:62:07:17:cd:4f:c1:5b:1a:77:85:d4:ff:58:
                    67:cb:38:f4:64:8d:1f:55:b2:6b:e4:e7:ea:19:b8:
                    d4:f5:80:5a:39:1b:c3:27:6d:3a:54:08:3f:f8:02:
                    fc:50:68:90:55:13:cd:20:70:5c:12:fd:35:37:1f:
                    46:e7:3a:23:b7:ad:86:dd:c7:b2:9b:bb:fb:89:8f:
                    41:2f:c2:42:0d:77:50:87:e8:1f:56:4b:27:88:0c:
                    59:de:ae:f9:ec:69:ab:0a:b5:04:09:6d:51:ad:8d:
                    24:e7
                Exponent: 65537 (0x10001)
        X509v3 extensions:
            X509v3 Key Usage: critical
                Certificate Sign, CRL Sign
            X509v3 Basic Constraints: critical
                CA:TRUE, pathlen:0
            X509v3 Subject Key Identifier: 
                EA:41:36:91:DB:AE:5E:03:34:B7:2F:CA:46:BD:81:27:F0:68:10:B3
            X509v3 Authority Key Identifier: 
                4D:64:A1:B5:BC:8F:96:99:7A:09:B6:27:87:87:E2:7E:CB:C5:17:85
            Authority Information Access: 
                CA Issuers - URI:http://localhost:8080/root-ca.cer
            X509v3 CRL Distribution Points: 
                Full Name:
                  URI:http://localhost:8080/root-ca.crl
    Signature Algorithm: sha1WithRSAEncryption
    Signature Value:
        12:9c:eb:35:96:31:86:4d:1f:cc:01:f4:a4:94:e0:02:af:35:
        d4:d5:f8:07:e4:6c:b4:63:e1:9f:43:28:1d:bf:fd:76:13:60:
        e7:1a:f3:56:b0:13:20:7a:83:3d:ab:15:00:84:9a:5c:df:0e:
        81:30:fb:23:5e:17:3d:ab:74:6a:b0:40:3b:e6:8e:ec:cf:b3:
        63:3f:c9:ab:2d:5e:e6:5d:95:79:62:c4:15:49:91:a3:30:a5:
        34:bd:46:95:25:ff:69:a9:4c:03:40:6f:a0:82:cd:85:47:9a:
        de:cb:49:02:c4:52:64:ec:09:85:e3:90:ef:45:8f:69:3b:fc:
        6d:fa:e0:63:9e:35:54:04:a5:f9:6f:f8:23:0a:a4:6d:2e:9f:
        14:89:66:34:48:0e:34:ec:b7:96:35:a8:0e:17:64:5e:c8:99:
        06:89:23:b4:85:4c:ae:b3:e6:f5:e1:db:79:c9:87:7f:51:61:
        84:66:97:dd:09:98:f0:d3:1f:ac:fb:32:77:e1:21:c3:86:96:
        ac:72:00:76:f3:f7:c0:47:c4:80:4f:fd:90:a6:0e:c6:de:ad:
        28:e5:a4:9b:ad:fa:67:12:74:6b:83:ec:e6:20:17:db:b4:6e:
        8c:10:2a:24:fc:af:f5:2a:a8:a9:c2:70:95:16:30:77:c9:4c:
        7b:51:a8:e1
-----BEGIN CERTIFICATE-----
MIID+TCCAuGgAwIBAgIBAjANBgkqhkiG9w0BAQUFADBSMQswCQYDVQQGEwJERTEP
MA0GA1UECgwGc2NobGFjMRQwEgYDVQQLDAtzY2hsYWMtdGVzdDEcMBoGA1UEAwwT
c2NobGFjLXRlc3QgUm9vdCBDQTAeFw0yMjA5MTIwOTQzNDRaFw0zMjA5MTEwOTQz
NDRaMFExCzAJBgNVBAYTAkRFMQ8wDQYDVQQKDAZzY2hsYWMxFDASBgNVBAsMC3Nj
aGxhYy10ZXN0MRswGQYDVQQDDBJzY2hsYWMtdGVzdCBUTFMgQ0EwggEiMA0GCSqG
SIb3DQEBAQUAA4IBDwAwggEKAoIBAQDaHRaUyt7AVrV7SpLIbAyHgC+KjAr4h4OA
RLdSnM4bGY3YniuvlTV7T0wxygXAOIv622xsq4gfyDfoyDwJntcmeXLgCK+jwDYe
AqXM93cJmXgBUIGeDGM8008xusgBwdIoQnUpTzo/UPCv6hD+iIg4pAx5Hx3iQG0c
W0Of8UvLFPdKu4SwfWwydp+Kp9H52zu5b2WeOXQdYgcXzU/BWxp3hdT/WGfLOPRk
jR9Vsmvk5+oZuNT1gFo5G8MnbTpUCD/4AvxQaJBVE80gcFwS/TU3H0bnOiO3rYbd
x7Kbu/uJj0EvwkINd1CH6B9WSyeIDFnervnsaasKtQQJbVGtjSTnAgMBAAGjgdow
gdcwDgYDVR0PAQH/BAQDAgEGMBIGA1UdEwEB/wQIMAYBAf8CAQAwHQYDVR0OBBYE
FOpBNpHbrl4DNLcvyka9gSfwaBCzMB8GA1UdIwQYMBaAFE1kobW8j5aZegm2J4eH
4n7LxReFMD0GCCsGAQUFBwEBBDEwLzAtBggrBgEFBQcwAoYhaHR0cDovL2xvY2Fs
aG9zdDo4MDgwL3Jvb3QtY2EuY2VyMDIGA1UdHwQrMCkwJ6AloCOGIWh0dHA6Ly9s
b2NhbGhvc3Q6ODA4MC9yb290LWNhLmNybDANBgkqhkiG9w0BAQUFAAOCAQEAEpzr
NZYxhk0fzAH0pJTgAq811NX4B+RstGPhn0MoHb/9dhNg5xrzVrATIHqDPasVAISa
XN8OgTD7I14XPat0arBAO+aO7M+zYz/Jqy1e5l2VeWLEFUmRozClNL1GlSX/aalM
A0BvoILNhUea3stJAsRSZOwJheOQ70WPaTv8bfrgY541VASl+W/4IwqkbS6fFIlm
NEgONOy3ljWoDhdkXsiZBokjtIVMrrPm9eHbecmHf1FhhGaX3QmY8NMfrPsyd+Eh
w4aWrHIAdvP3wEfEgE/9kKYOxt6tKOWkm636ZxJ0a4Ps5iAX27RujBAqJPyv9Sqo
qcJwlRYwd8lMe1Go4Q==
-----END CERTIFICATE-----
